; Function Attrs: mustprogress nofree norecurse nosync nounwind willreturn memory(none) uwtable
define ptr @udbg_enumName(i32 noundef %0, i32 noundef %1) local_unnamed_addr #10 {
  %3 = icmp sgt i32 %1, -1
  %4 = icmp ult i32 %0, 6
  %or.cond = and i1 %3, %4
  br i1 %or.cond, label %switch.lookup, label %_ZL16_udbg_enumFields14UDebugEnumType.exit

switch.lookup:                                    ; preds = %2
  %5 = zext nneg i32 %0 to i64
  %switch.gep = getelementptr inbounds nuw [6 x i32], ptr @switch.table.udbg_enumArrayValue, i64 0, i64 %5
  %switch.load = load i32, ptr %switch.gep, align 4
  %.not = icmp samesign ult i32 %1, %switch.load
  br i1 %.not, label %switch.lookup16, label %_ZL16_udbg_enumFields14UDebugEnumType.exit

switch.lookup16:                                  ; preds = %switch.lookup
  %6 = zext nneg i32 %0 to i64
  %switch.gep17 = getelementptr inbounds nuw [6 x ptr], ptr @switch.table.udbg_enumByName, i64 0, i64 %6
  %switch.load18 = load ptr, ptr %switch.gep17, align 8
  %7 = zext nneg i32 %1 to i64
  %8 = getelementptr inbounds nuw %struct.Field, ptr %switch.load18, i64 %7
  %9 = getelementptr inbounds nuw i8, ptr %8, i64 8
  %10 = load ptr, ptr %9, align 8, !tbaa !15
  %11 = load i32, ptr %8, align 8, !tbaa !17
  %12 = sext i32 %11 to i64
  %13 = getelementptr inbounds i8, ptr %10, i64 %12
  br label %_ZL16_udbg_enumFields14UDebugEnumType.exit

_ZL16_udbg_enumFields14UDebugEnumType.exit:       ; preds = %switch.lookup16, %2, %switch.lookup
  %.0 = phi ptr [ null, %switch.lookup ], [ null, %2 ], [ %13, %switch.lookup16 ]
  ret ptr %.0
}